; Function Attrs: mustprogress uwtable
define noundef zeroext i1 @_ZNK8QuantLib19CompositeInstrument9isExpiredEv(ptr noundef nonnull readonly align 8 dereferenceable(128) %this) unnamed_addr #8 align 2 personality ptr @__gxx_personality_v0 {
entry:
  %components_ = getelementptr inbounds nuw i8, ptr %this, i64 104
  br label %for.cond

for.cond:                                         ; preds = %_ZNK5boost10shared_ptrIN8QuantLib10InstrumentEEptEv.exit, %entry
  %__begin1.sroa.0.0.in = phi ptr [ %components_, %entry ], [ %__begin1.sroa.0.0, %_ZNK5boost10shared_ptrIN8QuantLib10InstrumentEEptEv.exit ]
  %__begin1.sroa.0.0 = load ptr, ptr %__begin1.sroa.0.0.in, align 8, !tbaa !60
  %cmp.i.not = icmp eq ptr %__begin1.sroa.0.0, %components_
  br i1 %cmp.i.not, label %cleanup9, label %for.body

for.body:                                         ; preds = %for.cond
  %_M_storage.i.i = getelementptr inbounds nuw i8, ptr %__begin1.sroa.0.0, i64 16
  %0 = load ptr, ptr %_M_storage.i.i, align 8, !tbaa !35
  %cmp.not.i = icmp eq ptr %0, null
  br i1 %cmp.not.i, label %cond.false.i, label %_ZNK5boost10shared_ptrIN8QuantLib10InstrumentEEptEv.exit, !prof !57

cond.false.i:                                     ; preds = %for.body
  tail call void @_ZN5boost16assertion_failedEPKcS1_S1_l(ptr noundef nonnull @.str.5, ptr noundef nonnull @__PRETTY_FUNCTION__._ZNK5boost10shared_ptrIN8QuantLib10InstrumentEEptEv, ptr noundef nonnull @.str.6, i64 noundef 784)
  %.pre.i = load ptr, ptr %_M_storage.i.i, align 8, !tbaa !35
  br label %_ZNK5boost10shared_ptrIN8QuantLib10InstrumentEEptEv.exit

_ZNK5boost10shared_ptrIN8QuantLib10InstrumentEEptEv.exit: ; preds = %for.body, %cond.false.i
  %1 = phi ptr [ %0, %for.body ], [ %.pre.i, %cond.false.i ]
  %vtable = load ptr, ptr %1, align 8, !tbaa !33
  %vfn = getelementptr inbounds i8, ptr %vtable, i64 40
  %2 = load ptr, ptr %vfn, align 8
  %call7 = tail call noundef zeroext i1 %2(ptr noundef nonnull align 8 dereferenceable(104) %1)
  br i1 %call7, label %for.cond, label %cleanup9

cleanup9:                                         ; preds = %for.cond, %_ZNK5boost10shared_ptrIN8QuantLib10InstrumentEEptEv.exit
  ret i1 %cmp.i.not
}